target datalayout = "e-m:e-p270:32:32-p271:32:32-p272:64:64-i64:64-i128:128-f80:128-n8:16:32:64-S128"
target triple = "x86_64-pc-linux-gnu"

%struct.ParseContext_ = type { %struct.TokenData, i32, %union.SourceSpan, %union.SourceSpan, ptr, %struct.Lexer }
%struct.TokenData = type { ptr, i64, %union.anon.86 }
%union.anon.86 = type { %struct.anon.89 }
%struct.anon.89 = type { %struct.Int128_, i8 }
%struct.Int128_ = type { i64, i64 }
%union.SourceSpan = type { i64 }
%struct.Lexer = type { ptr, ptr, ptr, ptr, i32, i32, ptr, ptr, ptr, %struct.TokenData, %union.SourceSpan, i32, i32 }
%struct.Expr_ = type { ptr, %union.SourceSpan, i16, %union.anon.30 }
%union.anon.30 = type { %struct.ExprAnySwitch }
%struct.ExprAnySwitch = type { i8, %union.anon.32 }
%union.anon.32 = type { %struct.anon.33 }
%struct.anon.33 = type { ptr, %union.SourceSpan, ptr }
%struct.anon.0 = type { i16, i8, i8, i32 }
%struct.ExprUnary = type { ptr, i8 }

; Function Attrs: nounwind uwtable
define internal i64 @extend_span_with_token(i64 %0, i64 %1) #0 {
  %3 = alloca %union.SourceSpan, align 8
  %4 = alloca %union.SourceSpan, align 8
  %5 = alloca %union.SourceSpan, align 8
  %6 = getelementptr inbounds %union.SourceSpan, ptr %4, i32 0, i32 0
  store i64 %0, ptr %6, align 8
  %7 = getelementptr inbounds %union.SourceSpan, ptr %5, i32 0, i32 0
  store i64 %1, ptr %7, align 8
  %8 = getelementptr inbounds %struct.anon.0, ptr %4, i32 0, i32 3
  %9 = load i32, ptr %8, align 4
  %10 = getelementptr inbounds %struct.anon.0, ptr %5, i32 0, i32 3
  %11 = load i32, ptr %10, align 4
  %12 = icmp ne i32 %9, %11
  br i1 %12, label %13, label %14

13:                                               ; preds = %2
  call void @llvm.memcpy.p0.p0.i64(ptr align 8 %3, ptr align 8 %4, i64 8, i1 false)
  br label %28

14:                                               ; preds = %2
  %15 = getelementptr inbounds %struct.anon.0, ptr %5, i32 0, i32 2
  %16 = load i8, ptr %15, align 1
  %17 = zext i8 %16 to i32
  %18 = getelementptr inbounds %struct.anon.0, ptr %5, i32 0, i32 1
  %19 = load i8, ptr %18, align 2
  %20 = zext i8 %19 to i32
  %21 = add nsw i32 %17, %20
  %22 = getelementptr inbounds %struct.anon.0, ptr %4, i32 0, i32 2
  %23 = load i8, ptr %22, align 1
  %24 = zext i8 %23 to i32
  %25 = sub nsw i32 %21, %24
  %26 = trunc i32 %25 to i8
  %27 = getelementptr inbounds %struct.anon.0, ptr %4, i32 0, i32 1
  store i8 %26, ptr %27, align 2
  call void @llvm.memcpy.p0.p0.i64(ptr align 8 %3, ptr align 8 %4, i64 8, i1 false)
  br label %28

28:                                               ; preds = %14, %13
  %29 = getelementptr inbounds %union.SourceSpan, ptr %3, i32 0, i32 0
  %30 = load i64, ptr %29, align 8
  ret i64 %30
}

; Function Attrs: nounwind uwtable
define internal ptr @parse_post_unary(ptr noundef %0, ptr noundef %1) #0 {
  %3 = alloca i32, align 4
  %4 = alloca ptr, align 8
  %5 = alloca ptr, align 8
  %6 = alloca ptr, align 8
  %7 = alloca ptr, align 8
  %8 = alloca %union.SourceSpan, align 8
  store ptr %0, ptr %5, align 8
  store ptr %1, ptr %6, align 8
  %9 = load ptr, ptr %6, align 8
  store i32 44, ptr %3, align 4
  store ptr %9, ptr %4, align 8
  %10 = load i32, ptr %3, align 4
  %11 = load ptr, ptr %4, align 8
  %12 = getelementptr inbounds %struct.Expr_, ptr %11, i32 0, i32 1
  %13 = load i64, ptr %12, align 8
  %14 = call ptr @expr_new(i32 noundef %10, i64 %13) #5
  store ptr %14, ptr %7, align 8
  %15 = load ptr, ptr %6, align 8
  %16 = load ptr, ptr %7, align 8
  %17 = getelementptr inbounds %struct.Expr_, ptr %16, i32 0, i32 3
  %18 = getelementptr inbounds %struct.ExprUnary, ptr %17, i32 0, i32 0
  store ptr %15, ptr %18, align 8
  %19 = load ptr, ptr %5, align 8
  %20 = getelementptr inbounds %struct.ParseContext_, ptr %19, i32 0, i32 1
  %21 = load i32, ptr %20, align 8
  %22 = call i32 @unaryop_from_token(i32 noundef %21)
  %23 = load ptr, ptr %7, align 8
  %24 = getelementptr inbounds %struct.Expr_, ptr %23, i32 0, i32 3
  %25 = getelementptr inbounds %struct.ExprUnary, ptr %24, i32 0, i32 1
  %26 = trunc i32 %22 to i8
  store i8 %26, ptr %25, align 8
  %27 = load ptr, ptr %5, align 8
  call void @advance(ptr noundef %27)
  br label %28

28:                                               ; preds = %2
  %29 = load ptr, ptr %7, align 8
  %30 = getelementptr inbounds %struct.Expr_, ptr %29, i32 0, i32 1
  %31 = load ptr, ptr %7, align 8
  %32 = getelementptr inbounds %struct.Expr_, ptr %31, i32 0, i32 1
  %33 = load ptr, ptr %5, align 8
  %34 = getelementptr inbounds %struct.ParseContext_, ptr %33, i32 0, i32 3
  %35 = getelementptr inbounds %union.SourceSpan, ptr %32, i32 0, i32 0
  %36 = load i64, ptr %35, align 8
  %37 = getelementptr inbounds %union.SourceSpan, ptr %34, i32 0, i32 0
  %38 = load i64, ptr %37, align 8
  %39 = call i64 @extend_span_with_token(i64 %36, i64 %38)
  %40 = getelementptr inbounds %union.SourceSpan, ptr %8, i32 0, i32 0
  store i64 %39, ptr %40, align 8
  call void @llvm.memcpy.p0.p0.i64(ptr align 8 %30, ptr align 8 %8, i64 8, i1 false)
  br label %41

41:                                               ; preds = %28
  %42 = load ptr, ptr %7, align 8
  ret ptr %42
}