; Function Attrs: nounwind uwtable
define internal ptr @parse_post_unary(ptr noundef %0, ptr noundef %1) #1 {
  %3 = getelementptr inbounds i8, ptr %1, i64 8
  %4 = load i64, ptr %3, align 8
  %5 = tail call ptr @expr_new(i32 noundef 44, i64 %4) #8
  %6 = getelementptr inbounds i8, ptr %5, i64 24
  store ptr %1, ptr %6, align 8
  %7 = getelementptr inbounds i8, ptr %0, i64 40
  %8 = load i32, ptr %7, align 8
  %9 = tail call i32 @unaryop_from_token(i32 noundef %8) #8
  %10 = getelementptr inbounds i8, ptr %5, i64 32
  %11 = trunc i32 %9 to i8
  store i8 %11, ptr %10, align 8
  tail call void @advance(ptr noundef %0) #8
  %12 = getelementptr inbounds i8, ptr %5, i64 8
  %13 = getelementptr inbounds i8, ptr %0, i64 56
  %14 = load i64, ptr %12, align 8
  %15 = load i64, ptr %13, align 8
  %.not.unshifted.i = xor i64 %15, %14
  %.not.i = icmp ult i64 %.not.unshifted.i, 4294967296
  br i1 %.not.i, label %17, label %16

16:                                               ; preds = %2
  %.sroa.33.0.extract.shift.i = lshr i64 %14, 16
  br label %extend_span_with_token.exit

17:                                               ; preds = %2
  %.sroa.4.0.extract.shift.i = lshr i64 %14, 24
  %18 = trunc i64 %15 to i32
  %19 = lshr i32 %18, 24
  %20 = lshr i32 %18, 16
  %21 = trunc i64 %.sroa.4.0.extract.shift.i to i32
  %22 = sub i32 %20, %21
  %23 = add i32 %22, %19
  %24 = zext i32 %23 to i64
  br label %extend_span_with_token.exit

extend_span_with_token.exit:                      ; preds = %16, %17
  %.sroa.311.0.i = phi i64 [ %.sroa.33.0.extract.shift.i, %16 ], [ %24, %17 ]
  %.sroa.311.0.insert.ext.i = shl nuw i64 %.sroa.311.0.i, 16
  %.sroa.311.0.insert.shift.i = and i64 %.sroa.311.0.insert.ext.i, 16711680
  %25 = and i64 %14, -16711681
  %.sroa.010.0.insert.insert.i = or disjoint i64 %.sroa.311.0.insert.shift.i, %25
  store i64 %.sroa.010.0.insert.insert.i, ptr %12, align 8
  ret ptr %5
}